; Function Attrs: mustprogress uwtable
define hidden void @_ZN4cvc58internal5proof20LfscProofPostprocess7processESt10shared_ptrINS0_9ProofNodeEE(ptr noundef nonnull readonly align 8 captures(none) dereferenceable(24) %0, ptr noundef readonly captures(none) %1) local_unnamed_addr #3 align 2 personality ptr @__gxx_personality_v0 {
  %3 = alloca %"class.cvc5::internal::ProofNodeUpdater", align 8
  %4 = alloca %"class.std::shared_ptr", align 8
  %5 = getelementptr inbounds nuw i8, ptr %0, i64 16
  %6 = load ptr, ptr %5, align 8, !tbaa !329
  %7 = getelementptr inbounds nuw i8, ptr %6, i64 40
  store i8 0, ptr %7, align 8, !tbaa !24
  call void @llvm.lifetime.start.p0(i64 64, ptr nonnull %3) #23
  %8 = getelementptr inbounds nuw i8, ptr %0, i64 8
  %9 = load ptr, ptr %8, align 8, !tbaa !331
  %10 = getelementptr inbounds nuw i8, ptr %6, i64 16
  call void @_ZN4cvc58internal16ProofNodeUpdaterC1ERNS0_3EnvERNS0_24ProofNodeUpdaterCallbackEbb(ptr noundef nonnull align 8 dereferenceable(58) %3, ptr noundef nonnull align 8 dereferenceable(696) %9, ptr noundef nonnull align 8 dereferenceable(8) %10, i1 noundef zeroext false, i1 noundef zeroext false)
  %11 = load ptr, ptr %1, align 8, !tbaa !28
  store ptr %11, ptr %4, align 8, !tbaa !28
  %12 = getelementptr inbounds nuw i8, ptr %4, i64 8
  %13 = getelementptr inbounds nuw i8, ptr %1, i64 8
  %14 = load ptr, ptr %13, align 8, !tbaa !281
  store ptr %14, ptr %12, align 8, !tbaa !281
  %.not.i.i.i = icmp eq ptr %14, null
  br i1 %.not.i.i.i, label %_ZNSt10shared_ptrIN4cvc58internal9ProofNodeEEC2ERKS3_.exit, label %15

15:                                               ; preds = %2
  %16 = getelementptr inbounds nuw i8, ptr %14, i64 8
  %17 = load i8, ptr @__libc_single_threaded, align 1, !tbaa !285
  %.not.i.i.i.i = icmp eq i8 %17, 0
  br i1 %.not.i.i.i.i, label %21, label %18

18:                                               ; preds = %15
  %19 = load i32, ptr %16, align 4, !tbaa !286
  %20 = add nsw i32 %19, 1
  store i32 %20, ptr %16, align 4, !tbaa !286
  br label %_ZNSt10shared_ptrIN4cvc58internal9ProofNodeEEC2ERKS3_.exit

21:                                               ; preds = %15
  %22 = atomicrmw volatile add ptr %16, i32 1 acq_rel, align 4
  br label %_ZNSt10shared_ptrIN4cvc58internal9ProofNodeEEC2ERKS3_.exit

_ZNSt10shared_ptrIN4cvc58internal9ProofNodeEEC2ERKS3_.exit: ; preds = %2, %18, %21
  invoke void @_ZN4cvc58internal16ProofNodeUpdater7processESt10shared_ptrINS0_9ProofNodeEE(ptr noundef nonnull align 8 dereferenceable(58) %3, ptr noundef nonnull %4)
          to label %23 unwind label %71

23:                                               ; preds = %_ZNSt10shared_ptrIN4cvc58internal9ProofNodeEEC2ERKS3_.exit
  %24 = load ptr, ptr %12, align 8, !tbaa !281
  %.not.i.i = icmp eq ptr %24, null
  br i1 %.not.i.i, label %_ZNSt12__shared_ptrIN4cvc58internal9ProofNodeELN9__gnu_cxx12_Lock_policyE2EED2Ev.exit, label %25

25:                                               ; preds = %23
  %26 = getelementptr inbounds nuw i8, ptr %24, i64 8
  %27 = load atomic i64, ptr %26 acquire, align 8
  %28 = icmp eq i64 %27, 4294967297
  %29 = trunc i64 %27 to i32
  br i1 %28, label %30, label %38

30:                                               ; preds = %25
  store i32 0, ptr %26, align 8, !tbaa !282
  %31 = getelementptr inbounds nuw i8, ptr %24, i64 12
  store i32 0, ptr %31, align 4, !tbaa !284
  %32 = load ptr, ptr %24, align 8, !tbaa !3
  %33 = getelementptr inbounds nuw i8, ptr %32, i64 16
  %34 = load ptr, ptr %33, align 8
  call void %34(ptr noundef nonnull align 8 dereferenceable(16) %24) #23
  %35 = load ptr, ptr %24, align 8, !tbaa !3
  %36 = getelementptr inbounds nuw i8, ptr %35, i64 24
  %37 = load ptr, ptr %36, align 8
  call void %37(ptr noundef nonnull align 8 dereferenceable(16) %24) #23
  br label %_ZNSt12__shared_ptrIN4cvc58internal9ProofNodeELN9__gnu_cxx12_Lock_policyE2EED2Ev.exit

38:                                               ; preds = %25
  %39 = load i8, ptr @__libc_single_threaded, align 1, !tbaa !285
  %.not.i.i.i2 = icmp eq i8 %39, 0
  br i1 %.not.i.i.i2, label %42, label %40

40:                                               ; preds = %38
  %41 = add nsw i32 %29, -1
  store i32 %41, ptr %26, align 4, !tbaa !286
  br label %_ZN9__gnu_cxx27__exchange_and_add_dispatchEPii.exit.i.i.i

42:                                               ; preds = %38
  %43 = atomicrmw volatile add ptr %26, i32 -1 acq_rel, align 4
  br label %_ZN9__gnu_cxx27__exchange_and_add_dispatchEPii.exit.i.i.i

_ZN9__gnu_cxx27__exchange_and_add_dispatchEPii.exit.i.i.i: ; preds = %42, %40
  %.0.i.i.i.i = phi i32 [ %29, %40 ], [ %43, %42 ]
  %44 = icmp eq i32 %.0.i.i.i.i, 1
  br i1 %44, label %45, label %_ZNSt12__shared_ptrIN4cvc58internal9ProofNodeELN9__gnu_cxx12_Lock_policyE2EED2Ev.exit, !prof !45

45:                                               ; preds = %_ZN9__gnu_cxx27__exchange_and_add_dispatchEPii.exit.i.i.i
  call void @_ZNSt16_Sp_counted_baseILN9__gnu_cxx12_Lock_policyE2EE24_M_release_last_use_coldEv(ptr noundef nonnull align 8 dereferenceable(16) %24) #23
  br label %_ZNSt12__shared_ptrIN4cvc58internal9ProofNodeELN9__gnu_cxx12_Lock_policyE2EED2Ev.exit

_ZNSt12__shared_ptrIN4cvc58internal9ProofNodeELN9__gnu_cxx12_Lock_policyE2EED2Ev.exit: ; preds = %23, %30, %_ZN9__gnu_cxx27__exchange_and_add_dispatchEPii.exit.i.i.i, %45
  store ptr getelementptr inbounds nuw inrange(-16, 16) (i8, ptr @_ZTVN4cvc58internal16ProofNodeUpdaterE, i64 16), ptr %3, align 8, !tbaa !3
  %46 = getelementptr inbounds nuw i8, ptr %3, i64 32
  %47 = load ptr, ptr %46, align 8, !tbaa !51
  %48 = getelementptr inbounds nuw i8, ptr %3, i64 40
  %49 = load ptr, ptr %48, align 8, !tbaa !53
  %.not4.i.i.i.i.i = icmp eq ptr %47, %49
  br i1 %.not4.i.i.i.i.i, label %_ZSt8_DestroyIPN4cvc58internal12NodeTemplateILb1EEES3_EvT_S5_RSaIT0_E.exit.i.i, label %.lr.ph.i.i.i.i.i

.lr.ph.i.i.i.i.i:                                 ; preds = %_ZNSt12__shared_ptrIN4cvc58internal9ProofNodeELN9__gnu_cxx12_Lock_policyE2EED2Ev.exit, %_ZSt8_DestroyIN4cvc58internal12NodeTemplateILb1EEEEvPT_.exit.i.i.i.i.i
  %.05.i.i.i.i.i = phi ptr [ %63, %_ZSt8_DestroyIN4cvc58internal12NodeTemplateILb1EEEEvPT_.exit.i.i.i.i.i ], [ %47, %_ZNSt12__shared_ptrIN4cvc58internal9ProofNodeELN9__gnu_cxx12_Lock_policyE2EED2Ev.exit ]
  %50 = load ptr, ptr %.05.i.i.i.i.i, align 8, !tbaa !35
  %51 = load i64, ptr %50, align 8
  %52 = and i64 %51, 1152920405095219200
  %.not.i.i.i.i.i.i.i.i = icmp eq i64 %52, 1152920405095219200
  br i1 %.not.i.i.i.i.i.i.i.i, label %_ZSt8_DestroyIN4cvc58internal12NodeTemplateILb1EEEEvPT_.exit.i.i.i.i.i, label %53, !prof !45

53:                                               ; preds = %.lr.ph.i.i.i.i.i
  %54 = add i64 %51, 1152920405095219200
  %55 = and i64 %54, 1152920405095219200
  %56 = and i64 %51, -1152920405095219201
  %57 = or disjoint i64 %55, %56
  store i64 %57, ptr %50, align 8
  %58 = icmp eq i64 %55, 0
  br i1 %58, label %59, label %_ZSt8_DestroyIN4cvc58internal12NodeTemplateILb1EEEEvPT_.exit.i.i.i.i.i, !prof !45

59:                                               ; preds = %53
  invoke void @_ZN4cvc58internal4expr9NodeValue15markForDeletionEv(ptr noundef nonnull align 8 dereferenceable(24) %50)
          to label %_ZSt8_DestroyIN4cvc58internal12NodeTemplateILb1EEEEvPT_.exit.i.i.i.i.i unwind label %60

60:                                               ; preds = %59
  %61 = landingpad { ptr, i32 }
          catch ptr null
  %62 = extractvalue { ptr, i32 } %61, 0
  call void @__clang_call_terminate(ptr %62) #24
  unreachable

_ZSt8_DestroyIN4cvc58internal12NodeTemplateILb1EEEEvPT_.exit.i.i.i.i.i: ; preds = %59, %53, %.lr.ph.i.i.i.i.i
  %63 = getelementptr inbounds nuw i8, ptr %.05.i.i.i.i.i, i64 8
  %.not.i.i.i.i.i = icmp eq ptr %63, %49
  br i1 %.not.i.i.i.i.i, label %_ZSt8_DestroyIPN4cvc58internal12NodeTemplateILb1EEES3_EvT_S5_RSaIT0_E.exitthread-pre-split.i.i, label %.lr.ph.i.i.i.i.i, !llvm.loop !60

_ZSt8_DestroyIPN4cvc58internal12NodeTemplateILb1EEES3_EvT_S5_RSaIT0_E.exitthread-pre-split.i.i: ; preds = %_ZSt8_DestroyIN4cvc58internal12NodeTemplateILb1EEEEvPT_.exit.i.i.i.i.i
  %.pr.i.i = load ptr, ptr %46, align 8, !tbaa !51
  br label %_ZSt8_DestroyIPN4cvc58internal12NodeTemplateILb1EEES3_EvT_S5_RSaIT0_E.exit.i.i

_ZSt8_DestroyIPN4cvc58internal12NodeTemplateILb1EEES3_EvT_S5_RSaIT0_E.exit.i.i: ; preds = %_ZSt8_DestroyIPN4cvc58internal12NodeTemplateILb1EEES3_EvT_S5_RSaIT0_E.exitthread-pre-split.i.i, %_ZNSt12__shared_ptrIN4cvc58internal9ProofNodeELN9__gnu_cxx12_Lock_policyE2EED2Ev.exit
  %64 = phi ptr [ %.pr.i.i, %_ZSt8_DestroyIPN4cvc58internal12NodeTemplateILb1EEES3_EvT_S5_RSaIT0_E.exitthread-pre-split.i.i ], [ %47, %_ZNSt12__shared_ptrIN4cvc58internal9ProofNodeELN9__gnu_cxx12_Lock_policyE2EED2Ev.exit ]
  %.not.i.i.i.i3 = icmp eq ptr %64, null
  br i1 %.not.i.i.i.i3, label %_ZN4cvc58internal16ProofNodeUpdaterD2Ev.exit, label %65

65:                                               ; preds = %_ZSt8_DestroyIPN4cvc58internal12NodeTemplateILb1EEES3_EvT_S5_RSaIT0_E.exit.i.i
  %66 = getelementptr inbounds nuw i8, ptr %3, i64 48
  %67 = load ptr, ptr %66, align 8, !tbaa !59
  %68 = ptrtoint ptr %67 to i64
  %69 = ptrtoint ptr %64 to i64
  %70 = sub i64 %68, %69
  call void @_ZdlPvm(ptr noundef nonnull %64, i64 noundef %70) #26
  br label %_ZN4cvc58internal16ProofNodeUpdaterD2Ev.exit

_ZN4cvc58internal16ProofNodeUpdaterD2Ev.exit:     ; preds = %_ZSt8_DestroyIPN4cvc58internal12NodeTemplateILb1EEES3_EvT_S5_RSaIT0_E.exit.i.i, %65
  call void @llvm.lifetime.end.p0(i64 64, ptr nonnull %3) #23
  ret void

71:                                               ; preds = %_ZNSt10shared_ptrIN4cvc58internal9ProofNodeEEC2ERKS3_.exit
  %72 = landingpad { ptr, i32 }
          cleanup
  call void @_ZNSt12__shared_ptrIN4cvc58internal9ProofNodeELN9__gnu_cxx12_Lock_policyE2EED2Ev(ptr noundef nonnull align 8 dereferenceable(16) %4) #23
  call void @_ZN4cvc58internal16ProofNodeUpdaterD2Ev(ptr noundef nonnull align 8 dereferenceable(58) %3) #23
  call void @llvm.lifetime.end.p0(i64 64, ptr nonnull %3) #23
  resume { ptr, i32 } %72
}